; Function Attrs: mustprogress nofree norecurse nosync nounwind willreturn memory(argmem: write) uwtable
define void @_ZN10OpenSubdiv6v3_6_03Vtr8internal9FVarLevelC2ERKNS2_5LevelE(ptr nocapture noundef nonnull writeonly align 8 dereferenceable(216) %0, ptr noundef nonnull align 8 dereferenceable(480) %1) unnamed_addr #0 align 2 {
  store ptr %1, ptr %0, align 8
  %3 = getelementptr inbounds nuw i8, ptr %0, i64 8
  store i8 0, ptr %3, align 8
  %4 = getelementptr inbounds i8, ptr %0, i64 9
  store i8 5, ptr %4, align 1
  %5 = getelementptr inbounds i8, ptr %0, i64 10
  %6 = getelementptr inbounds nuw i8, ptr %0, i64 16
  store i32 0, ptr %6, align 8
  %7 = getelementptr inbounds nuw i8, ptr %0, i64 24
  tail call void @llvm.memset.p0.i64(ptr noundef nonnull align 2 dereferenceable(5) %5, i8 0, i64 5, i1 false)
  tail call void @llvm.memset.p0.i64(ptr noundef nonnull align 8 dereferenceable(192) %7, i8 0, i64 192, i1 false)
  ret void
}